; Function Attrs: nounwind sspstrong uwtable
define internal fastcc i64 @gzfile_read(ptr noundef %0, i64 noundef %1, i64 noundef %2) unnamed_addr #0 {
  %4 = icmp slt i64 %1, 0
  br i1 %4, label %5, label %7

5:                                                ; preds = %3
  %6 = load i64, ptr @rb_eArgError, align 8, !tbaa !6
  tail call void (i64, ptr, ...) @rb_raise(i64 noundef %6, ptr noundef nonnull @.str.192, i64 noundef %1) #19
  unreachable

7:                                                ; preds = %3
  %8 = icmp eq i64 %1, 0
  br i1 %8, label %.thread24, label %.preheader.i

.preheader.i:                                     ; preds = %7
  %9 = load i64, ptr %0, align 8, !tbaa !113
  %10 = and i64 %9, 4
  %.not28.i = icmp eq i64 %10, 0
  br i1 %.not28.i, label %.lr.ph.i, label %.critedge.i

.lr.ph.i:                                         ; preds = %.preheader.i
  %11 = getelementptr inbounds nuw i8, ptr %0, i64 8
  br label %12

12:                                               ; preds = %19, %.lr.ph.i
  %13 = load i64, ptr %11, align 8, !tbaa !132
  %14 = icmp eq i64 %13, 4
  br i1 %14, label %19, label %.thread

.thread:                                          ; preds = %12
  %15 = inttoptr i64 %13 to ptr
  %16 = getelementptr inbounds nuw i8, ptr %15, i64 16
  %17 = load i64, ptr %16, align 8, !tbaa !21
  %18 = icmp slt i64 %17, %1
  br i1 %18, label %19, label %gzfile_fill.exit

19:                                               ; preds = %12, %.thread
  tail call fastcc void @gzfile_read_more(ptr noundef nonnull %0, i64 noundef %2)
  %20 = load i64, ptr %0, align 8, !tbaa !113
  %21 = and i64 %20, 4
  %.not.i = icmp eq i64 %21, 0
  br i1 %.not.i, label %12, label %.critedge.i, !llvm.loop !299

.critedge.i:                                      ; preds = %19, %.preheader.i
  %.lcssa.i = phi i64 [ %9, %.preheader.i ], [ %20, %19 ]
  %22 = getelementptr inbounds nuw i8, ptr %0, i64 8
  %23 = load i64, ptr %22, align 8, !tbaa !132
  %24 = icmp eq i64 %23, 4
  br i1 %24, label %.critedge25.i, label %25

25:                                               ; preds = %.critedge.i
  %26 = inttoptr i64 %23 to ptr
  %27 = getelementptr inbounds nuw i8, ptr %26, i64 16
  %28 = load i64, ptr %27, align 8, !tbaa !21
  %29 = icmp eq i64 %28, 0
  br i1 %29, label %.critedge25.i, label %gzfile_fill.exit

.critedge25.i:                                    ; preds = %25, %.critedge.i
  %30 = and i64 %.lcssa.i, 512
  %.not23.i = icmp eq i64 %30, 0
  br i1 %.not23.i, label %31, label %gzfile_fill.exit.thread

31:                                               ; preds = %.critedge25.i
  tail call fastcc void @gzfile_check_footer(ptr noundef nonnull %0, i64 noundef %2)
  br label %gzfile_fill.exit.thread

gzfile_fill.exit:                                 ; preds = %.thread, %25
  %32 = phi i64 [ %28, %25 ], [ %17, %.thread ]
  %spec.select.i = tail call i64 @llvm.smin.i64(i64 %1, i64 %32)
  %33 = icmp slt i64 %32, 0
  br i1 %33, label %gzfile_fill.exit.thread, label %37

gzfile_fill.exit.thread:                          ; preds = %.critedge25.i, %31, %gzfile_fill.exit
  %34 = icmp eq i64 %2, 4
  br i1 %34, label %66, label %35

35:                                               ; preds = %gzfile_fill.exit.thread
  %36 = tail call i64 @rb_str_resize(i64 noundef %2, i64 noundef 0) #18
  br label %66

37:                                               ; preds = %gzfile_fill.exit
  %38 = icmp eq i64 %32, 0
  br i1 %38, label %.thread24, label %44

.thread24:                                        ; preds = %7, %37
  %39 = icmp eq i64 %2, 4
  br i1 %39, label %40, label %42

40:                                               ; preds = %.thread24
  %41 = tail call i64 @rb_str_new_static(ptr noundef null, i64 noundef 0) #18
  br label %66

42:                                               ; preds = %.thread24
  %43 = tail call i64 @rb_str_resize(i64 noundef %2, i64 noundef 0) #18
  br label %66

44:                                               ; preds = %37
  %45 = tail call fastcc i64 @zstream_shift_buffer(ptr noundef nonnull %0, i64 noundef %spec.select.i, i64 noundef %2)
  %46 = icmp eq i64 %45, 4
  br i1 %46, label %66, label %47

47:                                               ; preds = %44
  %48 = inttoptr i64 %45 to ptr
  %49 = getelementptr inbounds nuw i8, ptr %48, i64 16
  %50 = load i64, ptr %49, align 8, !tbaa !21
  %51 = getelementptr inbounds nuw i8, ptr %0, i64 208
  %52 = load i64, ptr %51, align 8, !tbaa !156
  %.not.i18 = icmp sgt i64 %50, %52
  br i1 %.not.i18, label %55, label %53

53:                                               ; preds = %47
  %54 = sub nsw i64 %52, %50
  br label %gzfile_calc_crc.exit

55:                                               ; preds = %47
  %56 = getelementptr inbounds nuw i8, ptr %0, i64 192
  %57 = load i64, ptr %56, align 8, !tbaa !118
  %58 = and i64 %57, 4294967295
  %59 = load i64, ptr %48, align 8, !tbaa !16, !noalias !300
  %60 = and i64 %59, 8192
  %.not.i.i.i = icmp eq i64 %60, 0
  %61 = getelementptr inbounds nuw i8, ptr %48, i64 24
  br i1 %.not.i.i.i, label %RSTRING_PTR.exit.i, label %62

62:                                               ; preds = %55
  %.sroa.2.0.copyload.i.i = load ptr, ptr %61, align 8
  br label %RSTRING_PTR.exit.i

RSTRING_PTR.exit.i:                               ; preds = %62, %55
  %.sroa.2.0.i.i = phi ptr [ %.sroa.2.0.copyload.i.i, %62 ], [ %61, %55 ]
  %63 = getelementptr inbounds i8, ptr %.sroa.2.0.i.i, i64 %52
  %64 = sub nsw i64 %50, %52
  %65 = tail call i64 @crc32_z(i64 noundef %58, ptr noundef %63, i64 noundef %64) #18
  store i64 %65, ptr %56, align 8, !tbaa !118
  br label %gzfile_calc_crc.exit

gzfile_calc_crc.exit:                             ; preds = %53, %RSTRING_PTR.exit.i
  %storemerge.i = phi i64 [ 0, %RSTRING_PTR.exit.i ], [ %54, %53 ]
  store i64 %storemerge.i, ptr %51, align 8, !tbaa !156
  br label %66

66:                                               ; preds = %44, %gzfile_calc_crc.exit, %gzfile_fill.exit.thread, %35, %42, %40
  %.0 = phi i64 [ %41, %40 ], [ %2, %42 ], [ 4, %35 ], [ 4, %gzfile_fill.exit.thread ], [ %45, %gzfile_calc_crc.exit ], [ 4, %44 ]
  ret i64 %.0
}